; Function Attrs: nounwind uwtable
define void @lv_gradient_color_calculate(ptr nocapture noundef readonly %0, i32 noundef %1, i32 noundef %2, ptr nocapture noundef writeonly %3, ptr nocapture noundef writeonly %4) local_unnamed_addr #0 {
  %6 = getelementptr inbounds nuw i8, ptr %0, i64 4
  %7 = load i8, ptr %6, align 4, !tbaa !13
  %8 = zext i8 %7 to i32
  %9 = mul nsw i32 %1, %8
  %10 = ashr i32 %9, 8
  %.not = icmp sgt i32 %2, %10
  br i1 %.not, label %14, label %11

11:                                               ; preds = %5
  tail call void @llvm.memmove.p0.p0.i64(ptr noundef nonnull align 1 dereferenceable(3) %3, ptr noundef nonnull align 4 dereferenceable(3) %0, i64 3, i1 false)
  %12 = getelementptr inbounds nuw i8, ptr %0, i64 3
  %13 = load i8, ptr %12, align 1, !tbaa !16
  br label %99

14:                                               ; preds = %5
  %15 = getelementptr inbounds nuw i8, ptr %0, i64 10
  %16 = load i8, ptr %15, align 2, !tbaa !17
  %17 = zext i8 %16 to i64
  %18 = add nsw i64 %17, -1
  %19 = getelementptr inbounds [2 x %struct.lv_gradient_stop_t], ptr %0, i64 0, i64 %18
  %20 = getelementptr inbounds nuw i8, ptr %19, i64 4
  %21 = load i8, ptr %20, align 1, !tbaa !13
  %22 = zext i8 %21 to i32
  %23 = mul nsw i32 %1, %22
  %24 = ashr i32 %23, 8
  %.not68 = icmp slt i32 %2, %24
  br i1 %.not68, label %.preheader72, label %26

.preheader72:                                     ; preds = %14
  %25 = icmp ugt i8 %16, 1
  br i1 %25, label %.lr.ph, label %.preheader.preheader

26:                                               ; preds = %14
  tail call void @llvm.memmove.p0.p0.i64(ptr noundef nonnull align 1 dereferenceable(3) %3, ptr noundef nonnull align 1 dereferenceable(3) %19, i64 3, i1 false)
  %27 = load i8, ptr %15, align 2, !tbaa !17
  %28 = zext i8 %27 to i64
  %29 = add nsw i64 %28, -1
  %30 = getelementptr inbounds [2 x %struct.lv_gradient_stop_t], ptr %0, i64 0, i64 %29, i32 1
  %31 = load i8, ptr %30, align 1, !tbaa !16
  br label %99

.lr.ph:                                           ; preds = %.preheader72, %37
  %indvars.iv = phi i64 [ %indvars.iv.next, %37 ], [ 1, %.preheader72 ]
  %32 = getelementptr inbounds nuw [2 x %struct.lv_gradient_stop_t], ptr %0, i64 0, i64 %indvars.iv, i32 2
  %33 = load i8, ptr %32, align 1, !tbaa !13
  %34 = zext i8 %33 to i32
  %35 = mul nsw i32 %1, %34
  %36 = ashr i32 %35, 8
  %.not69 = icmp sgt i32 %2, %36
  br i1 %.not69, label %37, label %.split.loop.exit

37:                                               ; preds = %.lr.ph
  %indvars.iv.next = add nuw nsw i64 %indvars.iv, 1
  %exitcond.not = icmp eq i64 %indvars.iv.next, %17
  br i1 %exitcond.not, label %.preheader.preheader, label %.lr.ph, !llvm.loop !19

.split.loop.exit:                                 ; preds = %.lr.ph
  %38 = trunc i64 %indvars.iv to i32
  %39 = and i32 %38, 255
  %.not70 = icmp eq i32 %39, 0
  br i1 %.not70, label %.preheader.preheader, label %40

.preheader.preheader:                             ; preds = %37, %.preheader72, %.split.loop.exit
  br label %.preheader

.preheader:                                       ; preds = %.preheader.preheader, %.preheader
  br label %.preheader

40:                                               ; preds = %.split.loop.exit
  %41 = add nsw i32 %39, -1
  %42 = zext nneg i32 %41 to i64
  %43 = getelementptr inbounds [2 x %struct.lv_gradient_stop_t], ptr %0, i64 0, i64 %42
  %.sroa.010.0.copyload = load i8, ptr %43, align 1, !tbaa !20
  %.sroa.411.0..sroa_idx = getelementptr inbounds i8, ptr %43, i64 1
  %.sroa.411.0.copyload = load i8, ptr %.sroa.411.0..sroa_idx, align 1, !tbaa !20
  %.sroa.512.0..sroa_idx = getelementptr inbounds i8, ptr %43, i64 2
  %.sroa.512.0.copyload = load i8, ptr %.sroa.512.0..sroa_idx, align 1, !tbaa !20
  %44 = and i64 %indvars.iv, 255
  %45 = getelementptr inbounds [2 x %struct.lv_gradient_stop_t], ptr %0, i64 0, i64 %44
  %.sroa.09.0.copyload = load i8, ptr %45, align 1, !tbaa !20
  %.sroa.4.0..sroa_idx = getelementptr inbounds i8, ptr %45, i64 1
  %.sroa.4.0.copyload = load i8, ptr %.sroa.4.0..sroa_idx, align 1, !tbaa !20
  %.sroa.5.0..sroa_idx = getelementptr inbounds i8, ptr %45, i64 2
  %.sroa.5.0.copyload = load i8, ptr %.sroa.5.0..sroa_idx, align 1, !tbaa !20
  %46 = getelementptr inbounds nuw i8, ptr %43, i64 4
  %47 = load i8, ptr %46, align 1, !tbaa !13
  %48 = zext i8 %47 to i32
  %49 = mul nsw i32 %1, %48
  %50 = ashr i32 %49, 8
  %51 = getelementptr inbounds nuw i8, ptr %45, i64 4
  %52 = load i8, ptr %51, align 1, !tbaa !13
  %53 = zext i8 %52 to i32
  %54 = mul nsw i32 %1, %53
  %55 = ashr i32 %54, 8
  %56 = sub nsw i32 %55, %50
  %57 = sub nsw i32 %2, %50
  %58 = mul nsw i32 %57, 255
  %59 = sdiv i32 %58, %56
  %60 = and i32 %59, 255
  %61 = zext i8 %.sroa.5.0.copyload to i32
  %62 = mul nuw nsw i32 %60, %61
  %63 = zext i8 %.sroa.512.0.copyload to i32
  %64 = xor i32 %60, 255
  %65 = mul nuw nsw i32 %64, %63
  %66 = add nuw nsw i32 %65, %62
  %67 = mul nuw i32 %66, 32897
  %68 = lshr i32 %67, 23
  %69 = trunc i32 %68 to i8
  %70 = zext i8 %.sroa.4.0.copyload to i32
  %71 = mul nuw nsw i32 %60, %70
  %72 = zext i8 %.sroa.411.0.copyload to i32
  %73 = mul nuw nsw i32 %64, %72
  %74 = add nuw nsw i32 %73, %71
  %75 = mul nuw i32 %74, 32897
  %76 = lshr i32 %75, 23
  %77 = trunc i32 %76 to i8
  %78 = zext i8 %.sroa.09.0.copyload to i32
  %79 = mul nuw nsw i32 %60, %78
  %80 = zext i8 %.sroa.010.0.copyload to i32
  %81 = mul nuw nsw i32 %64, %80
  %82 = add nuw nsw i32 %81, %79
  %83 = mul nuw i32 %82, 32897
  %84 = lshr i32 %83, 23
  %85 = trunc i32 %84 to i8
  %86 = tail call i24 @lv_color_make(i8 noundef zeroext %69, i8 noundef zeroext %77, i8 noundef zeroext %85) #5
  store i24 %86, ptr %3, align 1
  %87 = getelementptr inbounds nuw i8, ptr %45, i64 3
  %88 = load i8, ptr %87, align 1, !tbaa !16
  %89 = zext i8 %88 to i32
  %90 = mul nuw nsw i32 %60, %89
  %91 = getelementptr inbounds nuw i8, ptr %43, i64 3
  %92 = load i8, ptr %91, align 1, !tbaa !16
  %93 = zext i8 %92 to i32
  %94 = mul nuw nsw i32 %64, %93
  %95 = add nuw nsw i32 %94, %90
  %96 = mul nuw i32 %95, 32897
  %97 = lshr i32 %96, 23
  %98 = trunc i32 %97 to i8
  br label %99

99:                                               ; preds = %26, %40, %11
  %storemerge71 = phi i8 [ %13, %11 ], [ %98, %40 ], [ %31, %26 ]
  store i8 %storemerge71, ptr %4, align 1, !tbaa !20
  ret void
}